; Function Attrs: mustprogress nounwind uwtable
define hidden noundef ptr @_ZNK19no_rbp_r13_RegIOper5cloneEv(ptr nocapture noundef nonnull readnone align 8 dereferenceable(8) %0) unnamed_addr #0 align 2 {
  %2 = tail call align 8 ptr @llvm.threadlocal.address.p0(ptr align 8 @_ZN6Thread12_thr_currentE)
  %3 = load ptr, ptr %2, align 8
  %4 = getelementptr inbounds i8, ptr %3, i64 1808
  %5 = load ptr, ptr %4, align 8
  %6 = getelementptr inbounds i8, ptr %5, i64 128
  %7 = load ptr, ptr %6, align 8
  %8 = getelementptr inbounds i8, ptr %7, i64 728
  %9 = load ptr, ptr %8, align 8
  %10 = getelementptr inbounds i8, ptr %9, i64 40
  %11 = load ptr, ptr %10, align 8
  %12 = getelementptr inbounds i8, ptr %9, i64 32
  %13 = load ptr, ptr %12, align 8
  %14 = ptrtoint ptr %11 to i64
  %15 = ptrtoint ptr %13 to i64
  %16 = sub i64 %14, %15
  %.not.i.i.i = icmp ult i64 %16, 8
  br i1 %.not.i.i.i, label %19, label %17

17:                                               ; preds = %1
  %18 = getelementptr inbounds i8, ptr %13, i64 8
  store ptr %18, ptr %12, align 8
  br label %_ZN8MachOpernwEm.exit

19:                                               ; preds = %1
  %20 = tail call noundef ptr @_ZN5Arena4growEmN17AllocFailStrategy13AllocFailEnumE(ptr noundef nonnull align 8 dereferenceable(48) %9, i64 noundef 8, i32 noundef 0) #4
  br label %_ZN8MachOpernwEm.exit

_ZN8MachOpernwEm.exit:                            ; preds = %17, %19
  %.0.i.i.i = phi ptr [ %13, %17 ], [ %20, %19 ]
  %21 = icmp eq ptr %.0.i.i.i, null
  br i1 %21, label %23, label %22

22:                                               ; preds = %_ZN8MachOpernwEm.exit
  store ptr getelementptr inbounds inrange(-16, 232) (i8, ptr @_ZTV19no_rbp_r13_RegIOper, i64 16), ptr %.0.i.i.i, align 8
  br label %23

23:                                               ; preds = %22, %_ZN8MachOpernwEm.exit
  ret ptr %.0.i.i.i
}